Certificate:
    Data:
        Version: 3 (0x2)
        Serial Number: 10 (0xa)
    Signature Algorithm: sha1WithRSAEncryption
        Issuer: O=ESGF, OU=ESGF.ORG, OU=simpleca.nsc.liu.se, CN=NSC Simple CA
        Validity
            Not Before: Aug 10 12:40:42 2015 GMT
            Not After : Aug  9 12:40:42 2016 GMT
        Subject: O=ESGF, OU=ESGF.ORG, CN=esg-rc.local
        Subject Public Key Info:
            Public Key Algorithm: rsaEncryption
                Public-Key: (4096 bit)
                Modulus:
                    00:f5:3c:f7:79:e4:74:24:df:59:54:87:00:b4:16:
                    07:df:9d:53:d8:6d:2f:79:f6:5e:1f:a5:81:c0:27:
                    9f:20:91:83:a9:bb:97:32:e3:98:1a:ae:81:2d:b3:
                    11:81:90:32:fb:88:df:60:2d:13:61:40:28:fe:a6:
                    d2:4c:59:bc:45:a2:d6:84:3d:04:f0:b4:1c:db:86:
                    cb:a8:2a:73:a3:8a:8a:9c:4f:3b:f8:ae:ce:a1:c6:
                    b0:d4:e5:45:2e:d9:c1:08:92:71:5b:31:bc:94:b7:
                    68:6c:2e:d3:59:52:28:d9:8c:04:69:4c:d4:63:5d:
                    99:08:c2:9d:a5:f5:73:36:a0:17:f6:6a:a7:cc:7c:
                    df:b1:b5:01:22:4e:27:21:ad:e5:98:9e:74:95:8a:
                    6d:f8:d3:f9:e8:f0:5c:f8:67:cc:f8:a9:ea:cb:06:
                    6a:0b:8e:09:44:7c:24:72:c4:86:36:c4:3b:27:b7:
                    56:45:28:ce:43:81:ea:ad:cd:ac:81:9a:48:62:5b:
                    00:5f:df:d9:d7:43:27:5b:9c:d3:a0:a6:65:24:2e:
                    75:c2:b2:10:2b:6a:14:0e:1c:91:d9:3f:04:7d:49:
                    2d:4d:37:91:87:71:16:c2:05:f4:8a:71:77:8d:69:
                    8c:23:2e:3a:0c:a1:41:fe:68:dc:f8:9c:63:bd:8a:
                    66:a8:44:d2:8c:f8:77:c5:71:bb:58:81:03:33:86:
                    72:30:cb:b4:d9:cd:87:b7:45:f1:17:5f:d8:65:98:
                    bf:77:10:39:f4:64:b6:7d:cc:f9:be:87:34:38:3b:
                    8f:1e:ae:47:a9:79:0b:ce:c5:cd:5c:a6:04:62:7e:
                    36:ba:7a:8d:59:bf:50:2b:29:e2:62:18:61:5e:0e:
                    58:2a:61:07:af:2b:a1:77:18:ed:2d:3a:10:b4:c9:
                    0b:d8:0c:73:fa:43:26:1b:a4:25:d2:68:90:cf:8d:
                    49:54:c6:e1:36:0b:37:78:fe:3e:5d:98:9a:37:32:
                    46:a4:45:c8:4d:c1:a4:2c:8d:17:a6:4d:8b:b6:46:
                    35:c5:de:5d:2b:e1:06:b2:3c:86:76:1e:80:af:1f:
                    26:7b:20:09:fa:fc:5a:e4:43:1c:6f:1d:89:ac:08:
                    a4:b6:25:c6:90:3d:81:3b:17:3e:b8:ac:c5:cc:2a:
                    fa:9d:90:00:e1:00:8e:76:84:1f:86:35:a6:ce:bb:
                    2f:95:da:e7:a8:66:be:7a:bf:d7:52:e3:4f:c5:69:
                    0e:39:6c:4b:2e:4a:1c:15:38:2e:f0:e4:8e:b7:28:
                    1f:21:a9:21:da:0f:4a:79:e0:5e:37:6e:ad:02:c9:
                    ea:03:ab:5d:29:c4:b9:e1:64:42:5e:67:5b:49:05:
                    12:ca:a5
                Exponent: 65537 (0x10001)
        X509v3 extensions:
            Netscape Cert Type: 
                SSL Client, SSL Server, S/MIME, Object Signing
    Signature Algorithm: sha1WithRSAEncryption
         2c:5c:b4:88:80:9c:da:c5:4b:d8:d1:39:c7:fe:f9:e7:8d:21:
         6a:86:d2:c7:54:8b:52:e3:e8:9d:39:2b:7f:f1:3e:88:a4:b3:
         b7:e9:a3:40:3c:62:5e:63:1c:6d:65:9d:a5:7c:4b:32:85:ea:
         64:42:71:fb:07:bd:ae:26:42:ab:63:0f:8e:74:53:62:b5:db:
         ae:6d:ef:24:9d:fb:b4:85:70:13:ea:18:14:f4:5f:89:7f:9d:
         ee:cc:4d:b6:6d:7a:a1:05:b1:48:ce:2b:22:6a:1a:72:d0:72:
         2f:ff:95:d9:e5:37:9b:33:92:94:65:62:2b:14:e8:88:60:15:
         8f:cf:97:c1:6e:6f:9a:c8:32:21:01:f3:c8:4f:e3:5e:b8:76:
         44:16:cc:38:a4:20:b9:ec:ff:68:db:27:63:17:fb:f3:e7:e0:
         4b:c9:5d:10:e7:01:af:02:48:bb:8c:2f:b4:a5:5d:03:ac:44:
         5b:c9:a3:f6:14:99:be:cf:15:0f:1c:aa:c9:a8:0c:49:10:0e:
         47:4b:1b:7a:1f:73:27:05:95:d4:cb:68:22:e9:47:c5:2c:d0:
         3a:52:ef:4f:f1:33:4b:d4:e1:20:85:75:36:2f:87:37:41:e1:
         57:9b:33:a7:ba:20:3c:f9:28:72:95:6c:e1:c3:e2:fc:65:01:
         bd:1f:c6:7f:a0:65:10:f8:54:94:6a:db:38:4d:43:59:ac:e1:
         01:e1:2e:7c:c3:50:c6:cd:26:64:fc:61:00:20:b5:40:b6:12:
         91:30:43:cb:ec:ea:cb:41:71:59:ac:ef:20:3f:15:3b:e5:d6:
         2b:ca:25:a2:ba:b8:d2:f0:56:92:93:bc:4b:eb:94:26:11:30:
         f7:21:2f:71:b0:ec:6c:a0:cf:aa:c0:61:ff:23:15:5b:2e:32:
         00:5d:24:ce:85:14:dc:8f:be:84:bd:e0:52:bf:40:2a:96:c4:
         67:a5:21:01:52:b6:cc:a6:75:22:d4:7f:2d:40:e4:68:cd:6e:
         0e:0b:0f:ec:0e:11:e1:fa:5d:e2:e9:3d:b8:dd:22:92:d1:06:
         e5:89:80:ee:3b:5c:6e:7f:6b:cc:77:b4:6e:49:e1:4c:43:ca:
         d7:27:58:f7:4c:f6:b6:91:88:ba:78:d7:6b:85:84:66:4f:f7:
         c9:af:aa:be:27:42:ea:3c:62:dc:a0:4b:7a:c3:57:7a:17:c9:
         a7:26:21:cf:9d:4d:5e:99:c3:eb:11:55:5d:df:da:4f:b3:9c:
         5b:0b:d8:f3:0c:87:bd:7c:df:60:60:72:3e:f4:27:2c:5f:89:
         cd:ab:d5:76:c2:7e:a0:c9:5f:4a:a6:41:79:0e:f4:e4:f7:bc:
         38:5d:38:af:76:ae:3e:b0
-----BEGIN CERTIFICATE-----
MIIFITCCAwmgAwIBAgIBCjANBgkqhkiG9w0BAQUFADBYMQ0wCwYDVQQKDARFU0dG
MREwDwYDVQQLDAhFU0dGLk9SRzEcMBoGA1UECwwTc2ltcGxlY2EubnNjLmxpdS5z
ZTEWMBQGA1UEAwwNTlNDIFNpbXBsZSBDQTAeFw0xNTA4MTAxMjQwNDJaFw0xNjA4
MDkxMjQwNDJaMDkxDTALBgNVBAoMBEVTR0YxETAPBgNVBAsMCEVTR0YuT1JHMRUw
EwYDVQQDDAxlc2ctcmMubG9jYWwwggIiMA0GCSqGSIb3DQEBAQUAA4ICDwAwggIK
AoICAQD1PPd55HQk31lUhwC0FgffnVPYbS959l4fpYHAJ58gkYOpu5cy45garoEt
sxGBkDL7iN9gLRNhQCj+ptJMWbxFotaEPQTwtBzbhsuoKnOjioqcTzv4rs6hxrDU
5UUu2cEIknFbMbyUt2hsLtNZUijZjARpTNRjXZkIwp2l9XM2oBf2aqfMfN+xtQEi
TichreWYnnSVim340/no8Fz4Z8z4qerLBmoLjglEfCRyxIY2xDsnt1ZFKM5Dgeqt
zayBmkhiWwBf39nXQydbnNOgpmUkLnXCshArahQOHJHZPwR9SS1NN5GHcRbCBfSK
cXeNaYwjLjoMoUH+aNz4nGO9imaoRNKM+HfFcbtYgQMzhnIwy7TZzYe3RfEXX9hl
mL93EDn0ZLZ9zPm+hzQ4O48erkepeQvOxc1cpgRifja6eo1Zv1ArKeJiGGFeDlgq
YQevK6F3GO0tOhC0yQvYDHP6QyYbpCXSaJDPjUlUxuE2Czd4/j5dmJo3MkakRchN
waQsjRemTYu2RjXF3l0r4QayPIZ2HoCvHyZ7IAn6/FrkQxxvHYmsCKS2JcaQPYE7
Fz64rMXMKvqdkADhAI52hB+GNabOuy+V2ueoZr56v9dS40/FaQ45bEsuShwVOC7w
5I63KB8hqSHaD0p54F43bq0CyeoDq10pxLnhZEJeZ1tJBRLKpQIDAQABoxUwEzAR
BglghkgBhvhCAQEEBAMCBPAwDQYJKoZIhvcNAQEFBQADggIBACxctIiAnNrFS9jR
Ocf++eeNIWqG0sdUi1Lj6J05K3/xPoiks7fpo0A8Yl5jHG1lnaV8SzKF6mRCcfsH
va4mQqtjD450U2K1265t7ySd+7SFcBPqGBT0X4l/ne7MTbZteqEFsUjOKyJqGnLQ
ci//ldnlN5szkpRlYisU6IhgFY/Pl8Fub5rIMiEB88hP4164dkQWzDikILns/2jb
J2MX+/Pn4EvJXRDnAa8CSLuML7SlXQOsRFvJo/YUmb7PFQ8cqsmoDEkQDkdLG3of
cycFldTLaCLpR8Us0DpS70/xM0vU4SCFdTYvhzdB4VebM6e6IDz5KHKVbOHD4vxl
Ab0fxn+gZRD4VJRq2zhNQ1ms4QHhLnzDUMbNJmT8YQAgtUC2EpEwQ8vs6stBcVms
7yA/FTvl1ivKJaK6uNLwVpKTvEvrlCYRMPchL3Gw7Gygz6rAYf8jFVsuMgBdJM6F
FNyPvoS94FK/QCqWxGelIQFStsymdSLUfy1A5GjNbg4LD+wOEeH6XeLpPbjdIpLR
BuWJgO47XG5/a8x3tG5J4UxDytcnWPdM9raRiLp412uFhGZP98mvqr4nQuo8Ytyg
S3rDV3oXyacmIc+dTV6Zw+sRVV3f2k+znFsL2PMMh71832Bgcj70Jyxfic2r1XbC
fqDJX0qmQXkO9OT3vDhdOK92rj6w
-----END CERTIFICATE-----
