Certificate:
    Data:
        Version: 3 (0x2)
        Serial Number: 8 (0x8)
    Signature Algorithm: sha1WithRSAEncryption
        Issuer: O=ESGF, OU=ESGF.ORG, OU=simpleca.nsc.liu.se, CN=NSC Simple CA
        Validity
            Not Before: Jul 15 11:33:18 2015 GMT
            Not After : Jul 14 11:33:18 2016 GMT
        Subject: O=ESGF, OU=ESGF.ORG, CN=esg-rc.local
        Subject Public Key Info:
            Public Key Algorithm: rsaEncryption
                Public-Key: (4096 bit)
                Modulus:
                    00:f5:3c:f7:79:e4:74:24:df:59:54:87:00:b4:16:
                    07:df:9d:53:d8:6d:2f:79:f6:5e:1f:a5:81:c0:27:
                    9f:20:91:83:a9:bb:97:32:e3:98:1a:ae:81:2d:b3:
                    11:81:90:32:fb:88:df:60:2d:13:61:40:28:fe:a6:
                    d2:4c:59:bc:45:a2:d6:84:3d:04:f0:b4:1c:db:86:
                    cb:a8:2a:73:a3:8a:8a:9c:4f:3b:f8:ae:ce:a1:c6:
                    b0:d4:e5:45:2e:d9:c1:08:92:71:5b:31:bc:94:b7:
                    68:6c:2e:d3:59:52:28:d9:8c:04:69:4c:d4:63:5d:
                    99:08:c2:9d:a5:f5:73:36:a0:17:f6:6a:a7:cc:7c:
                    df:b1:b5:01:22:4e:27:21:ad:e5:98:9e:74:95:8a:
                    6d:f8:d3:f9:e8:f0:5c:f8:67:cc:f8:a9:ea:cb:06:
                    6a:0b:8e:09:44:7c:24:72:c4:86:36:c4:3b:27:b7:
                    56:45:28:ce:43:81:ea:ad:cd:ac:81:9a:48:62:5b:
                    00:5f:df:d9:d7:43:27:5b:9c:d3:a0:a6:65:24:2e:
                    75:c2:b2:10:2b:6a:14:0e:1c:91:d9:3f:04:7d:49:
                    2d:4d:37:91:87:71:16:c2:05:f4:8a:71:77:8d:69:
                    8c:23:2e:3a:0c:a1:41:fe:68:dc:f8:9c:63:bd:8a:
                    66:a8:44:d2:8c:f8:77:c5:71:bb:58:81:03:33:86:
                    72:30:cb:b4:d9:cd:87:b7:45:f1:17:5f:d8:65:98:
                    bf:77:10:39:f4:64:b6:7d:cc:f9:be:87:34:38:3b:
                    8f:1e:ae:47:a9:79:0b:ce:c5:cd:5c:a6:04:62:7e:
                    36:ba:7a:8d:59:bf:50:2b:29:e2:62:18:61:5e:0e:
                    58:2a:61:07:af:2b:a1:77:18:ed:2d:3a:10:b4:c9:
                    0b:d8:0c:73:fa:43:26:1b:a4:25:d2:68:90:cf:8d:
                    49:54:c6:e1:36:0b:37:78:fe:3e:5d:98:9a:37:32:
                    46:a4:45:c8:4d:c1:a4:2c:8d:17:a6:4d:8b:b6:46:
                    35:c5:de:5d:2b:e1:06:b2:3c:86:76:1e:80:af:1f:
                    26:7b:20:09:fa:fc:5a:e4:43:1c:6f:1d:89:ac:08:
                    a4:b6:25:c6:90:3d:81:3b:17:3e:b8:ac:c5:cc:2a:
                    fa:9d:90:00:e1:00:8e:76:84:1f:86:35:a6:ce:bb:
                    2f:95:da:e7:a8:66:be:7a:bf:d7:52:e3:4f:c5:69:
                    0e:39:6c:4b:2e:4a:1c:15:38:2e:f0:e4:8e:b7:28:
                    1f:21:a9:21:da:0f:4a:79:e0:5e:37:6e:ad:02:c9:
                    ea:03:ab:5d:29:c4:b9:e1:64:42:5e:67:5b:49:05:
                    12:ca:a5
                Exponent: 65537 (0x10001)
        X509v3 extensions:
            Netscape Cert Type: 
                SSL Client, SSL Server, S/MIME, Object Signing
    Signature Algorithm: sha1WithRSAEncryption
         5b:73:64:33:a2:d8:d3:75:48:7e:31:e7:5b:ca:71:36:16:50:
         f4:73:ee:ec:a0:bd:e3:72:24:2e:69:40:62:a3:e4:72:34:dd:
         28:1e:c0:60:29:02:14:0b:c5:c1:4c:95:b8:80:e0:c4:d5:4f:
         ff:a9:8f:bf:39:94:6b:ee:0e:8e:92:32:ec:e7:25:0f:7e:86:
         38:b4:43:62:1d:0e:74:af:c2:03:66:48:f3:05:a4:c1:d6:cc:
         1f:af:dd:b7:4c:8f:24:23:a3:75:c6:65:ed:1b:30:f8:34:2d:
         e5:2e:1a:1f:9f:d5:32:5a:83:3e:db:90:d2:81:ab:0a:38:00:
         cc:c7:47:20:0d:36:98:e3:93:2f:ef:16:19:e4:48:83:b8:98:
         01:44:4e:26:63:07:e8:2c:b1:38:0c:08:dd:58:a8:7f:47:f4:
         2e:34:9f:61:8b:9d:31:11:6a:91:ff:c3:4d:98:bd:ff:bc:f9:
         da:4f:bd:0a:c9:58:fa:5e:1b:25:c4:7f:66:74:5a:e8:5c:67:
         11:b4:8d:f8:ca:2d:f4:2e:2b:20:19:44:5c:ad:4b:9e:c4:e1:
         3a:91:61:f1:ed:eb:10:4c:8c:97:7d:a3:58:46:61:73:fb:1c:
         74:f3:19:15:8a:24:16:fc:54:30:82:ef:b8:d9:59:56:22:0a:
         99:7e:48:52:ec:73:69:7e:79:cb:fc:87:65:6d:f1:4d:76:13:
         5d:28:0a:9f:73:5d:43:4a:09:0b:0a:5b:27:b6:52:e5:07:e4:
         23:7b:17:12:f9:48:9b:43:04:26:d8:88:5c:2e:c1:90:17:bf:
         88:2c:83:fd:cb:e7:d9:ba:85:ce:6c:ce:83:96:02:90:a3:b4:
         8b:62:5b:af:de:d1:d8:50:55:71:f7:28:46:ce:8f:e3:9d:67:
         60:dd:e0:ff:83:67:13:d1:2a:9e:36:35:36:75:6a:41:64:b8:
         ca:2e:97:e3:bd:88:a2:d1:bf:d1:69:52:98:af:90:91:21:0e:
         ef:f8:8d:7b:2e:54:ab:78:34:b4:bb:48:a9:0d:c1:78:a9:4d:
         97:07:b0:e1:f4:3b:f5:e2:c0:e9:74:c3:7b:e1:0a:86:05:25:
         84:9e:f1:9c:20:35:a8:4e:02:bd:3a:bf:e9:25:55:8b:b7:33:
         25:a2:12:21:67:51:3f:c7:ec:6d:91:6f:d5:ad:9a:ba:a0:9d:
         10:44:a4:ff:59:58:28:a3:b0:e8:39:64:79:24:13:93:e4:4d:
         28:be:e1:41:d5:99:55:16:71:ff:5b:76:22:e4:e2:07:d5:ce:
         93:cf:68:83:31:5d:26:ec:55:c7:92:6e:1c:49:c2:fa:ae:0b:
         10:29:f5:c4:39:41:34:86
-----BEGIN CERTIFICATE-----
MIIFITCCAwmgAwIBAgIBCDANBgkqhkiG9w0BAQUFADBYMQ0wCwYDVQQKDARFU0dG
MREwDwYDVQQLDAhFU0dGLk9SRzEcMBoGA1UECwwTc2ltcGxlY2EubnNjLmxpdS5z
ZTEWMBQGA1UEAwwNTlNDIFNpbXBsZSBDQTAeFw0xNTA3MTUxMTMzMThaFw0xNjA3
MTQxMTMzMThaMDkxDTALBgNVBAoMBEVTR0YxETAPBgNVBAsMCEVTR0YuT1JHMRUw
EwYDVQQDDAxlc2ctcmMubG9jYWwwggIiMA0GCSqGSIb3DQEBAQUAA4ICDwAwggIK
AoICAQD1PPd55HQk31lUhwC0FgffnVPYbS959l4fpYHAJ58gkYOpu5cy45garoEt
sxGBkDL7iN9gLRNhQCj+ptJMWbxFotaEPQTwtBzbhsuoKnOjioqcTzv4rs6hxrDU
5UUu2cEIknFbMbyUt2hsLtNZUijZjARpTNRjXZkIwp2l9XM2oBf2aqfMfN+xtQEi
TichreWYnnSVim340/no8Fz4Z8z4qerLBmoLjglEfCRyxIY2xDsnt1ZFKM5Dgeqt
zayBmkhiWwBf39nXQydbnNOgpmUkLnXCshArahQOHJHZPwR9SS1NN5GHcRbCBfSK
cXeNaYwjLjoMoUH+aNz4nGO9imaoRNKM+HfFcbtYgQMzhnIwy7TZzYe3RfEXX9hl
mL93EDn0ZLZ9zPm+hzQ4O48erkepeQvOxc1cpgRifja6eo1Zv1ArKeJiGGFeDlgq
YQevK6F3GO0tOhC0yQvYDHP6QyYbpCXSaJDPjUlUxuE2Czd4/j5dmJo3MkakRchN
waQsjRemTYu2RjXF3l0r4QayPIZ2HoCvHyZ7IAn6/FrkQxxvHYmsCKS2JcaQPYE7
Fz64rMXMKvqdkADhAI52hB+GNabOuy+V2ueoZr56v9dS40/FaQ45bEsuShwVOC7w
5I63KB8hqSHaD0p54F43bq0CyeoDq10pxLnhZEJeZ1tJBRLKpQIDAQABoxUwEzAR
BglghkgBhvhCAQEEBAMCBPAwDQYJKoZIhvcNAQEFBQADggIBAFtzZDOi2NN1SH4x
51vKcTYWUPRz7uygveNyJC5pQGKj5HI03SgewGApAhQLxcFMlbiA4MTVT/+pj785
lGvuDo6SMuznJQ9+hji0Q2IdDnSvwgNmSPMFpMHWzB+v3bdMjyQjo3XGZe0bMPg0
LeUuGh+f1TJagz7bkNKBqwo4AMzHRyANNpjjky/vFhnkSIO4mAFETiZjB+gssTgM
CN1YqH9H9C40n2GLnTERapH/w02Yvf+8+dpPvQrJWPpeGyXEf2Z0WuhcZxG0jfjK
LfQuKyAZRFytS57E4TqRYfHt6xBMjJd9o1hGYXP7HHTzGRWKJBb8VDCC77jZWVYi
Cpl+SFLsc2l+ecv8h2Vt8U12E10oCp9zXUNKCQsKWye2UuUH5CN7FxL5SJtDBCbY
iFwuwZAXv4gsg/3L59m6hc5szoOWApCjtItiW6/e0dhQVXH3KEbOj+OdZ2Dd4P+D
ZxPRKp42NTZ1akFkuMoul+O9iKLRv9FpUpivkJEhDu/4jXsuVKt4NLS7SKkNwXip
TZcHsOH0O/XiwOl0w3vhCoYFJYSe8ZwgNahOAr06v+klVYu3MyWiEiFnUT/H7G2R
b9WtmrqgnRBEpP9ZWCijsOg5ZHkkE5PkTSi+4UHVmVUWcf9bdiLk4gfVzpPPaIMx
XSbsVceSbhxJwvquCxAp9cQ5QTSG
-----END CERTIFICATE-----
